; Function Attrs: nounwind uwtable
define hidden ptr @_PyObject_CallMethodIdObjArgs(ptr noundef %0, ptr noundef %1, ...) local_unnamed_addr #0 {
  %3 = alloca ptr, align 8
  %4 = alloca [1 x %struct.__va_list_tag], align 16
  %5 = tail call align 8 ptr @llvm.threadlocal.address.p0(ptr align 8 @_Py_tss_tstate)
  %6 = load ptr, ptr %5, align 8, !tbaa !25
  %7 = icmp eq ptr %0, null
  %8 = icmp eq ptr %1, null
  %or.cond = or i1 %7, %8
  br i1 %or.cond, label %9, label %14

9:                                                ; preds = %2
  %10 = getelementptr i8, ptr %6, i64 112
  %.val.i = load ptr, ptr %10, align 8, !tbaa !4
  %11 = icmp eq ptr %.val.i, null
  br i1 %11, label %_PyErr_Occurred.exit.thread.i, label %_PyErr_Occurred.exit.i

_PyErr_Occurred.exit.i:                           ; preds = %9
  %12 = getelementptr i8, ptr %.val.i, i64 8
  %.val.i.i = load ptr, ptr %12, align 8, !tbaa !20
  %.not.i17 = icmp eq ptr %.val.i.i, null
  br i1 %.not.i17, label %_PyErr_Occurred.exit.thread.i, label %null_error.exit

_PyErr_Occurred.exit.thread.i:                    ; preds = %_PyErr_Occurred.exit.i, %9
  %13 = load ptr, ptr @PyExc_SystemError, align 8, !tbaa !23
  tail call void @_PyErr_SetString(ptr noundef nonnull %6, ptr noundef %13, ptr noundef nonnull @.str.13) #10
  br label %null_error.exit

14:                                               ; preds = %2
  %15 = tail call ptr @_PyUnicode_FromId(ptr noundef nonnull %1) #10
  %.not = icmp eq ptr %15, null
  br i1 %.not, label %null_error.exit, label %16

16:                                               ; preds = %14
  call void @llvm.lifetime.start.p0(i64 8, ptr nonnull %3) #10
  store ptr null, ptr %3, align 8, !tbaa !23
  %17 = call i32 @_PyObject_GetMethod(ptr noundef nonnull %0, ptr noundef nonnull %15, ptr noundef nonnull %3) #10
  %18 = load ptr, ptr %3, align 8, !tbaa !23
  %19 = icmp eq ptr %18, null
  br i1 %19, label %30, label %20

20:                                               ; preds = %16
  %.not16 = icmp eq i32 %17, 0
  %21 = select i1 %.not16, ptr null, ptr %0
  call void @llvm.lifetime.start.p0(i64 24, ptr nonnull %4) #10
  call void @llvm.va_start.p0(ptr nonnull %4)
  %22 = load ptr, ptr %3, align 8, !tbaa !23
  %23 = call fastcc ptr @object_vacall(ptr noundef %6, ptr noundef %21, ptr noundef %22, ptr noundef %4)
  call void @llvm.va_end.p0(ptr nonnull %4)
  %24 = load ptr, ptr %3, align 8, !tbaa !23
  %25 = load i32, ptr %24, align 8, !tbaa !24
  %.not.i = icmp sgt i32 %25, -1
  br i1 %.not.i, label %26, label %Py_DECREF.exit

26:                                               ; preds = %20
  %27 = add nsw i32 %25, -1
  store i32 %27, ptr %24, align 8, !tbaa !24
  %28 = icmp eq i32 %27, 0
  br i1 %28, label %29, label %Py_DECREF.exit

29:                                               ; preds = %26
  call void @_Py_Dealloc(ptr noundef nonnull %24) #10
  br label %Py_DECREF.exit

Py_DECREF.exit:                                   ; preds = %20, %26, %29
  call void @llvm.lifetime.end.p0(i64 24, ptr nonnull %4) #10
  br label %30

30:                                               ; preds = %16, %Py_DECREF.exit
  %.2 = phi ptr [ %23, %Py_DECREF.exit ], [ null, %16 ]
  call void @llvm.lifetime.end.p0(i64 8, ptr nonnull %3) #10
  br label %null_error.exit

null_error.exit:                                  ; preds = %_PyErr_Occurred.exit.thread.i, %_PyErr_Occurred.exit.i, %30, %14
  %.0 = phi ptr [ %.2, %30 ], [ null, %14 ], [ null, %_PyErr_Occurred.exit.i ], [ null, %_PyErr_Occurred.exit.thread.i ]
  ret ptr %.0
}